target datalayout = "e-m:e-p270:32:32-p271:32:32-p272:64:64-i64:64-i128:128-f80:128-n8:16:32:64-S128"
target triple = "x86_64-pc-linux-gnu"

%struct._address = type { i32, i32, ptr, ptr }
%struct.usbll_address_t = type { i8, i8, i8 }
%struct._packet_info = type { ptr, ptr, i32, i32, %struct.nstime_t, %struct.nstime_t, %struct.nstime_t, i8, ptr, ptr, ptr, ptr, %struct._address, %struct._address, %struct._address, %struct._address, %struct._address, %struct._address, i32, ptr, i8, [3 x i8], %struct.anon, i32, i32, i32, i32, ptr, i8, ptr, ptr, i16, i16, i32, i32, i16, i32, i32, ptr, ptr, ptr, i8, i8, i16, i16, i16, i32, i16, i16, ptr, ptr, ptr, ptr, ptr, i32, i32 }
%struct.nstime_t = type { i64, i32 }
%struct.anon = type { i8, [3 x i8] }
%struct._proto_node = type { ptr, ptr, ptr, ptr, ptr, ptr, ptr }
%struct.field_info = type { ptr, i32, i32, i32, i32, i32, i32, ptr, ptr, ptr, i32, i32 }

@hf_usbll_src = internal global i32 0, align 4
@hf_usbll_dst = internal global i32 0, align 4
@hf_usbll_addr = internal global i32 0, align 4
@usbll_address_type = internal global i32 -1, align 4

; Function Attrs: inlinehint nounwind null_pointer_is_valid sspstrong uwtable
define internal void @proto_item_set_hidden(ptr noundef %0) #9 {
  %2 = alloca ptr, align 8
  store ptr %0, ptr %2, align 8
  %3 = load ptr, ptr %2, align 8
  %4 = icmp ne ptr %3, null
  br i1 %4, label %5, label %24

5:                                                ; preds = %1
  br label %6

6:                                                ; preds = %5
  %7 = load ptr, ptr %2, align 8
  %8 = getelementptr inbounds nuw %struct._proto_node, ptr %7, i32 0, i32 5
  %9 = load ptr, ptr %8, align 8
  %10 = icmp ne ptr %9, null
  br i1 %10, label %11, label %22

11:                                               ; preds = %6
  %12 = load ptr, ptr %2, align 8
  %13 = getelementptr inbounds nuw %struct._proto_node, ptr %12, i32 0, i32 5
  %14 = load ptr, ptr %13, align 8
  %15 = getelementptr inbounds nuw %struct.field_info, ptr %14, i32 0, i32 6
  %16 = load i32, ptr %15, align 4
  %17 = or i32 %16, 1
  %18 = load ptr, ptr %2, align 8
  %19 = getelementptr inbounds nuw %struct._proto_node, ptr %18, i32 0, i32 5
  %20 = load ptr, ptr %19, align 8
  %21 = getelementptr inbounds nuw %struct.field_info, ptr %20, i32 0, i32 6
  store i32 %17, ptr %21, align 4
  br label %22

22:                                               ; preds = %11, %6
  br label %23

23:                                               ; preds = %22
  br label %24

24:                                               ; preds = %23, %1
  ret void
}

; Function Attrs: inlinehint nounwind null_pointer_is_valid sspstrong uwtable
define internal void @proto_item_set_generated(ptr noundef %0) #9 {
  %2 = alloca ptr, align 8
  store ptr %0, ptr %2, align 8
  %3 = load ptr, ptr %2, align 8
  %4 = icmp ne ptr %3, null
  br i1 %4, label %5, label %24

5:                                                ; preds = %1
  br label %6

6:                                                ; preds = %5
  %7 = load ptr, ptr %2, align 8
  %8 = getelementptr inbounds nuw %struct._proto_node, ptr %7, i32 0, i32 5
  %9 = load ptr, ptr %8, align 8
  %10 = icmp ne ptr %9, null
  br i1 %10, label %11, label %22

11:                                               ; preds = %6
  %12 = load ptr, ptr %2, align 8
  %13 = getelementptr inbounds nuw %struct._proto_node, ptr %12, i32 0, i32 5
  %14 = load ptr, ptr %13, align 8
  %15 = getelementptr inbounds nuw %struct.field_info, ptr %14, i32 0, i32 6
  %16 = load i32, ptr %15, align 4
  %17 = or i32 %16, 2
  %18 = load ptr, ptr %2, align 8
  %19 = getelementptr inbounds nuw %struct._proto_node, ptr %18, i32 0, i32 5
  %20 = load ptr, ptr %19, align 8
  %21 = getelementptr inbounds nuw %struct.field_info, ptr %20, i32 0, i32 6
  store i32 %17, ptr %21, align 4
  br label %22

22:                                               ; preds = %11, %6
  br label %23

23:                                               ; preds = %22
  br label %24

24:                                               ; preds = %23, %1
  ret void
}

; Function Attrs: inlinehint nounwind null_pointer_is_valid sspstrong uwtable
define internal void @copy_address_shallow(ptr noundef %0, ptr noundef %1) #9 {
  %3 = alloca ptr, align 8
  %4 = alloca ptr, align 8
  store ptr %0, ptr %3, align 8
  store ptr %1, ptr %4, align 8
  %5 = load ptr, ptr %3, align 8
  %6 = load ptr, ptr %4, align 8
  %7 = getelementptr inbounds nuw %struct._address, ptr %6, i32 0, i32 0
  %8 = load i32, ptr %7, align 8
  %9 = load ptr, ptr %4, align 8
  %10 = getelementptr inbounds nuw %struct._address, ptr %9, i32 0, i32 1
  %11 = load i32, ptr %10, align 4
  %12 = load ptr, ptr %4, align 8
  %13 = getelementptr inbounds nuw %struct._address, ptr %12, i32 0, i32 2
  %14 = load ptr, ptr %13, align 8
  call void @set_address(ptr noundef %5, i32 noundef %8, i32 noundef %11, ptr noundef %14)
  ret void
}

; Function Attrs: inlinehint nounwind null_pointer_is_valid sspstrong uwtable
define internal void @set_address(ptr noundef %0, i32 noundef %1, i32 noundef %2, ptr noundef %3) #9 {
  %5 = alloca ptr, align 8
  %6 = alloca i32, align 4
  %7 = alloca i32, align 4
  %8 = alloca ptr, align 8
  store ptr %0, ptr %5, align 8
  store i32 %1, ptr %6, align 4
  store i32 %2, ptr %7, align 4
  store ptr %3, ptr %8, align 8
  %9 = load i32, ptr %7, align 4
  %10 = icmp eq i32 %9, 0
  br i1 %10, label %11, label %14

11:                                               ; preds = %4
  br label %12

12:                                               ; preds = %11
  br label %13

13:                                               ; preds = %12
  br label %19

14:                                               ; preds = %4
  br label %15

15:                                               ; preds = %14
  br label %16

16:                                               ; preds = %15
  br label %17

17:                                               ; preds = %16
  br label %18

18:                                               ; preds = %17
  br label %19

19:                                               ; preds = %18, %13
  %20 = load i32, ptr %6, align 4
  %21 = load ptr, ptr %5, align 8
  %22 = getelementptr inbounds nuw %struct._address, ptr %21, i32 0, i32 0
  store i32 %20, ptr %22, align 8
  %23 = load i32, ptr %7, align 4
  %24 = load ptr, ptr %5, align 8
  %25 = getelementptr inbounds nuw %struct._address, ptr %24, i32 0, i32 1
  store i32 %23, ptr %25, align 4
  %26 = load ptr, ptr %8, align 8
  %27 = load ptr, ptr %5, align 8
  %28 = getelementptr inbounds nuw %struct._address, ptr %27, i32 0, i32 2
  store ptr %26, ptr %28, align 8
  %29 = load ptr, ptr %5, align 8
  %30 = getelementptr inbounds nuw %struct._address, ptr %29, i32 0, i32 3
  store ptr null, ptr %30, align 8
  ret void
}

; Function Attrs: null_pointer_is_valid sspstrong uwtable
define internal void @usbll_set_address(ptr noundef %0, ptr noundef %1, ptr noundef %2, i8 noundef zeroext %3, i8 noundef zeroext %4, i8 noundef zeroext %5) #0 {
  %7 = alloca ptr, align 8
  %8 = alloca ptr, align 8
  %9 = alloca ptr, align 8
  %10 = alloca i8, align 1
  %11 = alloca i8, align 1
  %12 = alloca i8, align 1
  %13 = alloca ptr, align 8
  %14 = alloca ptr, align 8
  %15 = alloca ptr, align 8
  %16 = alloca ptr, align 8
  %17 = alloca ptr, align 8
  store ptr %0, ptr %7, align 8
  store ptr %1, ptr %8, align 8
  store ptr %2, ptr %9, align 8
  store i8 %3, ptr %10, align 1
  store i8 %4, ptr %11, align 1
  store i8 %5, ptr %12, align 1
  call void @llvm.lifetime.start.p0(i64 8, ptr %13) #11
  call void @llvm.lifetime.start.p0(i64 8, ptr %14) #11
  call void @llvm.lifetime.start.p0(i64 8, ptr %15) #11
  call void @llvm.lifetime.start.p0(i64 8, ptr %16) #11
  call void @llvm.lifetime.start.p0(i64 8, ptr %17) #11
  %18 = load ptr, ptr %9, align 8
  %19 = getelementptr inbounds nuw %struct._packet_info, ptr %18, i32 0, i32 51
  %20 = load ptr, ptr %19, align 8
  %21 = call noalias ptr @wmem_alloc0(ptr noundef %20, i64 noundef 3) #13
  store ptr %21, ptr %14, align 8
  %22 = load ptr, ptr %9, align 8
  %23 = getelementptr inbounds nuw %struct._packet_info, ptr %22, i32 0, i32 51
  %24 = load ptr, ptr %23, align 8
  %25 = call noalias ptr @wmem_alloc0(ptr noundef %24, i64 noundef 3) #13
  store ptr %25, ptr %15, align 8
  %26 = load i8, ptr %12, align 1
  %27 = zext i8 %26 to i32
  %28 = and i32 %27, 8
  %29 = icmp ne i32 %28, 0
  br i1 %29, label %69, label %30

30:                                               ; preds = %6
  %31 = load ptr, ptr %14, align 8
  %32 = getelementptr inbounds nuw %struct.usbll_address_t, ptr %31, i32 0, i32 0
  store i8 1, ptr %32, align 1
  %33 = load i8, ptr %12, align 1
  %34 = zext i8 %33 to i32
  %35 = and i32 %34, 4
  %36 = icmp ne i32 %35, 0
  br i1 %36, label %37, label %42

37:                                               ; preds = %30
  %38 = load ptr, ptr %15, align 8
  %39 = getelementptr inbounds nuw %struct.usbll_address_t, ptr %38, i32 0, i32 0
  store i8 4, ptr %39, align 1
  %40 = load ptr, ptr %9, align 8
  %41 = getelementptr inbounds nuw %struct._packet_info, ptr %40, i32 0, i32 23
  store i32 0, ptr %41, align 8
  br label %68

42:                                               ; preds = %30
  %43 = load i8, ptr %10, align 1
  %44 = load ptr, ptr %15, align 8
  %45 = getelementptr inbounds nuw %struct.usbll_address_t, ptr %44, i32 0, i32 1
  store i8 %43, ptr %45, align 1
  %46 = load i8, ptr %11, align 1
  %47 = load ptr, ptr %15, align 8
  %48 = getelementptr inbounds nuw %struct.usbll_address_t, ptr %47, i32 0, i32 2
  store i8 %46, ptr %48, align 1
  %49 = load i8, ptr %12, align 1
  %50 = zext i8 %49 to i32
  %51 = and i32 %50, 2
  %52 = icmp ne i32 %51, 0
  br i1 %52, label %53, label %58

53:                                               ; preds = %42
  %54 = load ptr, ptr %15, align 8
  %55 = getelementptr inbounds nuw %struct.usbll_address_t, ptr %54, i32 0, i32 0
  store i8 2, ptr %55, align 1
  %56 = load ptr, ptr %9, align 8
  %57 = getelementptr inbounds nuw %struct._packet_info, ptr %56, i32 0, i32 23
  store i32 0, ptr %57, align 8
  br label %67

58:                                               ; preds = %42
  %59 = load ptr, ptr %9, align 8
  %60 = getelementptr inbounds nuw %struct._packet_info, ptr %59, i32 0, i32 23
  store i32 8, ptr %60, align 8
  %61 = load ptr, ptr %15, align 8
  %62 = getelementptr inbounds nuw %struct.usbll_address_t, ptr %61, i32 0, i32 2
  %63 = load i8, ptr %62, align 1
  %64 = zext i8 %63 to i32
  %65 = load ptr, ptr %9, align 8
  %66 = getelementptr inbounds nuw %struct._packet_info, ptr %65, i32 0, i32 25
  store i32 %64, ptr %66, align 8
  br label %67

67:                                               ; preds = %58, %53
  br label %68

68:                                               ; preds = %67, %37
  br label %99

69:                                               ; preds = %6
  %70 = load ptr, ptr %15, align 8
  %71 = getelementptr inbounds nuw %struct.usbll_address_t, ptr %70, i32 0, i32 0
  store i8 1, ptr %71, align 1
  %72 = load i8, ptr %10, align 1
  %73 = load ptr, ptr %14, align 8
  %74 = getelementptr inbounds nuw %struct.usbll_address_t, ptr %73, i32 0, i32 1
  store i8 %72, ptr %74, align 1
  %75 = load i8, ptr %11, align 1
  %76 = load ptr, ptr %14, align 8
  %77 = getelementptr inbounds nuw %struct.usbll_address_t, ptr %76, i32 0, i32 2
  store i8 %75, ptr %77, align 1
  %78 = load i8, ptr %12, align 1
  %79 = zext i8 %78 to i32
  %80 = and i32 %79, 2
  %81 = icmp ne i32 %80, 0
  br i1 %81, label %82, label %87

82:                                               ; preds = %69
  %83 = load ptr, ptr %14, align 8
  %84 = getelementptr inbounds nuw %struct.usbll_address_t, ptr %83, i32 0, i32 0
  store i8 2, ptr %84, align 1
  %85 = load ptr, ptr %9, align 8
  %86 = getelementptr inbounds nuw %struct._packet_info, ptr %85, i32 0, i32 23
  store i32 0, ptr %86, align 8
  br label %98

87:                                               ; preds = %69
  %88 = load ptr, ptr %9, align 8
  %89 = getelementptr inbounds nuw %struct._packet_info, ptr %88, i32 0, i32 23
  store i32 8, ptr %89, align 8
  %90 = load ptr, ptr %14, align 8
  %91 = getelementptr inbounds nuw %struct.usbll_address_t, ptr %90, i32 0, i32 2
  %92 = load i8, ptr %91, align 1
  %93 = zext i8 %92 to i32
  %94 = load ptr, ptr %9, align 8
  %95 = getelementptr inbounds nuw %struct._packet_info, ptr %94, i32 0, i32 24
  store i32 %93, ptr %95, align 4
  %96 = load ptr, ptr %9, align 8
  %97 = getelementptr inbounds nuw %struct._packet_info, ptr %96, i32 0, i32 25
  store i32 -1, ptr %97, align 8
  br label %98

98:                                               ; preds = %87, %82
  br label %99

99:                                               ; preds = %98, %68
  %100 = load i8, ptr %12, align 1
  %101 = zext i8 %100 to i32
  %102 = and i32 %101, 8
  %103 = icmp ne i32 %102, 0
  %104 = xor i1 %103, true
  %105 = select i1 %104, i32 0, i32 1
  %106 = load ptr, ptr %9, align 8
  %107 = getelementptr inbounds nuw %struct._packet_info, ptr %106, i32 0, i32 37
  store i32 %105, ptr %107, align 4
  %108 = load ptr, ptr %9, align 8
  %109 = getelementptr inbounds nuw %struct._packet_info, ptr %108, i32 0, i32 14
  %110 = load i32, ptr @usbll_address_type, align 4
  %111 = load ptr, ptr %14, align 8
  call void @set_address(ptr noundef %109, i32 noundef %110, i32 noundef 3, ptr noundef %111)
  %112 = load ptr, ptr %9, align 8
  %113 = getelementptr inbounds nuw %struct._packet_info, ptr %112, i32 0, i32 16
  %114 = load ptr, ptr %9, align 8
  %115 = getelementptr inbounds nuw %struct._packet_info, ptr %114, i32 0, i32 14
  call void @copy_address_shallow(ptr noundef %113, ptr noundef %115)
  %116 = load ptr, ptr %9, align 8
  %117 = getelementptr inbounds nuw %struct._packet_info, ptr %116, i32 0, i32 15
  %118 = load i32, ptr @usbll_address_type, align 4
  %119 = load ptr, ptr %15, align 8
  call void @set_address(ptr noundef %117, i32 noundef %118, i32 noundef 3, ptr noundef %119)
  %120 = load ptr, ptr %9, align 8
  %121 = getelementptr inbounds nuw %struct._packet_info, ptr %120, i32 0, i32 17
  %122 = load ptr, ptr %9, align 8
  %123 = getelementptr inbounds nuw %struct._packet_info, ptr %122, i32 0, i32 15
  call void @copy_address_shallow(ptr noundef %121, ptr noundef %123)
  %124 = load ptr, ptr %9, align 8
  %125 = getelementptr inbounds nuw %struct._packet_info, ptr %124, i32 0, i32 51
  %126 = load ptr, ptr %125, align 8
  %127 = load ptr, ptr %9, align 8
  %128 = getelementptr inbounds nuw %struct._packet_info, ptr %127, i32 0, i32 16
  %129 = call ptr @address_to_str(ptr noundef %126, ptr noundef %128)
  store ptr %129, ptr %16, align 8
  %130 = load ptr, ptr %9, align 8
  %131 = getelementptr inbounds nuw %struct._packet_info, ptr %130, i32 0, i32 51
  %132 = load ptr, ptr %131, align 8
  %133 = load ptr, ptr %9, align 8
  %134 = getelementptr inbounds nuw %struct._packet_info, ptr %133, i32 0, i32 17
  %135 = call ptr @address_to_str(ptr noundef %132, ptr noundef %134)
  store ptr %135, ptr %17, align 8
  %136 = load ptr, ptr %7, align 8
  %137 = load i32, ptr @hf_usbll_src, align 4
  %138 = load ptr, ptr %8, align 8
  %139 = load ptr, ptr %16, align 8
  %140 = call ptr @proto_tree_add_string(ptr noundef %136, i32 noundef %137, ptr noundef %138, i32 noundef 0, i32 noundef 0, ptr noundef %139)
  store ptr %140, ptr %13, align 8
  %141 = load ptr, ptr %13, align 8
  call void @proto_item_set_generated(ptr noundef %141)
  %142 = load ptr, ptr %7, align 8
  %143 = load i32, ptr @hf_usbll_addr, align 4
  %144 = load ptr, ptr %8, align 8
  %145 = load ptr, ptr %16, align 8
  %146 = call ptr @proto_tree_add_string(ptr noundef %142, i32 noundef %143, ptr noundef %144, i32 noundef 0, i32 noundef 0, ptr noundef %145)
  store ptr %146, ptr %13, align 8
  %147 = load ptr, ptr %13, align 8
  call void @proto_item_set_hidden(ptr noundef %147)
  %148 = load ptr, ptr %7, align 8
  %149 = load i32, ptr @hf_usbll_dst, align 4
  %150 = load ptr, ptr %8, align 8
  %151 = load ptr, ptr %17, align 8
  %152 = call ptr @proto_tree_add_string(ptr noundef %148, i32 noundef %149, ptr noundef %150, i32 noundef 0, i32 noundef 0, ptr noundef %151)
  store ptr %152, ptr %13, align 8
  %153 = load ptr, ptr %13, align 8
  call void @proto_item_set_generated(ptr noundef %153)
  %154 = load ptr, ptr %7, align 8
  %155 = load i32, ptr @hf_usbll_addr, align 4
  %156 = load ptr, ptr %8, align 8
  %157 = load ptr, ptr %17, align 8
  %158 = call ptr @proto_tree_add_string(ptr noundef %154, i32 noundef %155, ptr noundef %156, i32 noundef 0, i32 noundef 0, ptr noundef %157)
  store ptr %158, ptr %13, align 8
  %159 = load ptr, ptr %13, align 8
  call void @proto_item_set_hidden(ptr noundef %159)
  call void @llvm.lifetime.end.p0(i64 8, ptr %17) #11
  call void @llvm.lifetime.end.p0(i64 8, ptr %16) #11
  call void @llvm.lifetime.end.p0(i64 8, ptr %15) #11
  call void @llvm.lifetime.end.p0(i64 8, ptr %14) #11
  call void @llvm.lifetime.end.p0(i64 8, ptr %13) #11
  ret void
}